; Function Attrs: mustprogress uwtable
define dso_local noundef zeroext i1 @_ZN4Luau6Parser21expectMatchAndConsumeEcRKNS0_11MatchLexemeEb(ptr noundef nonnull align 8 dereferenceable(1072) %0, i8 noundef signext %1, ptr noundef nonnull readonly align 4 captures(none) dereferenceable(12) %2, i1 noundef zeroext %3) local_unnamed_addr #2 align 2 {
  %5 = zext i8 %1 to i32
  %6 = getelementptr inbounds nuw i8, ptr %0, i64 128
  %7 = load i32, ptr %6, align 8, !tbaa !79
  %.not = icmp eq i32 %7, %5
  br i1 %.not, label %10, label %8

8:                                                ; preds = %4
  tail call void @_ZN4Luau6Parser25expectMatchAndConsumeFailENS_6Lexeme4TypeERKNS0_11MatchLexemeEPKc(ptr noundef nonnull align 8 dereferenceable(1072) %0, i32 noundef %5, ptr noundef nonnull align 4 dereferenceable(12) %2, ptr noundef null)
  %9 = tail call noundef zeroext i1 @_ZN4Luau6Parser28expectMatchAndConsumeRecoverEcRKNS0_11MatchLexemeEb(ptr noundef nonnull align 8 dereferenceable(1072) %0, i8 noundef signext %1, ptr nonnull align 4 poison, i1 noundef zeroext %3)
  br label %11

10:                                               ; preds = %4
  tail call void @_ZN4Luau6Parser10nextLexemeEv(ptr noundef nonnull align 8 dereferenceable(1072) %0)
  br label %11

11:                                               ; preds = %10, %8
  %.0 = phi i1 [ %9, %8 ], [ true, %10 ]
  ret i1 %.0
}